target datalayout = "e-m:e-p270:32:32-p271:32:32-p272:64:64-i64:64-i128:128-f80:128-n8:16:32:64-S128"
target triple = "x86_64-unknown-linux-gnu"

%"class.OpenColorIO_v2_4dev::DynamicProperty" = type { ptr }
%"class.OpenColorIO_v2_4dev::DynamicPropertyImpl.base" = type <{ %"class.OpenColorIO_v2_4dev::DynamicProperty", i32, i8 }>
%"class.OpenColorIO_v2_4dev::DynamicPropertyGradingToneImpl" = type { %"class.OpenColorIO_v2_4dev::DynamicPropertyImpl.base", %"class.OpenColorIO_v2_4dev::DynamicPropertyGradingTone", %"struct.OpenColorIO_v2_4dev::GradingTone", %"struct.OpenColorIO_v2_4dev::GradingTonePreRender" }
%"class.OpenColorIO_v2_4dev::DynamicPropertyGradingTone" = type { ptr }
%"struct.OpenColorIO_v2_4dev::GradingTone" = type { %"struct.OpenColorIO_v2_4dev::GradingRGBMSW", %"struct.OpenColorIO_v2_4dev::GradingRGBMSW", %"struct.OpenColorIO_v2_4dev::GradingRGBMSW", %"struct.OpenColorIO_v2_4dev::GradingRGBMSW", %"struct.OpenColorIO_v2_4dev::GradingRGBMSW", double }
%"struct.OpenColorIO_v2_4dev::GradingRGBMSW" = type { double, double, double, double, double, double }
%"struct.OpenColorIO_v2_4dev::GradingTonePreRender" = type { double, double, double, double, double, double, double, double, [4 x [6 x float]], [4 x [6 x float]], [4 x [6 x float]], [2 x [4 x [3 x float]]], [2 x [4 x [3 x float]]], [2 x [4 x [2 x float]]], [2 x [4 x [2 x float]]], [2 x [4 x [2 x float]]], [2 x [4 x [2 x float]]], [2 x [4 x float]], [2 x [4 x float]], [2 x [4 x float]], [2 x [2 x float]], float, float, float, float, i8, i32 }

; Function Attrs: mustprogress nounwind uwtable
define linkonce_odr hidden void @_ZN19OpenColorIO_v2_4dev13GradingRGBMSWC2Edd(ptr noundef nonnull align 8 dereferenceable(48) %this, double noundef %start, double noundef %width) unnamed_addr #1 comdat align 2 {
entry:
  %this.addr = alloca ptr, align 8
  %start.addr = alloca double, align 8
  %width.addr = alloca double, align 8
  store ptr %this, ptr %this.addr, align 8
  store double %start, ptr %start.addr, align 8
  store double %width, ptr %width.addr, align 8
  %this1 = load ptr, ptr %this.addr, align 8
  %m_red = getelementptr inbounds %"struct.OpenColorIO_v2_4dev::GradingRGBMSW", ptr %this1, i32 0, i32 0
  store double 1.000000e+00, ptr %m_red, align 8
  %m_green = getelementptr inbounds %"struct.OpenColorIO_v2_4dev::GradingRGBMSW", ptr %this1, i32 0, i32 1
  store double 1.000000e+00, ptr %m_green, align 8
  %m_blue = getelementptr inbounds %"struct.OpenColorIO_v2_4dev::GradingRGBMSW", ptr %this1, i32 0, i32 2
  store double 1.000000e+00, ptr %m_blue, align 8
  %m_master = getelementptr inbounds %"struct.OpenColorIO_v2_4dev::GradingRGBMSW", ptr %this1, i32 0, i32 3
  store double 1.000000e+00, ptr %m_master, align 8
  %m_start = getelementptr inbounds %"struct.OpenColorIO_v2_4dev::GradingRGBMSW", ptr %this1, i32 0, i32 4
  %0 = load double, ptr %start.addr, align 8
  store double %0, ptr %m_start, align 8
  %m_width = getelementptr inbounds %"struct.OpenColorIO_v2_4dev::GradingRGBMSW", ptr %this1, i32 0, i32 5
  %1 = load double, ptr %width.addr, align 8
  store double %1, ptr %m_width, align 8
  ret void
}

; Function Attrs: mustprogress uwtable
define linkonce_odr hidden void @_ZN19OpenColorIO_v2_4dev11GradingToneC2ENS_12GradingStyleE(ptr noundef nonnull align 8 dereferenceable(248) %this, i32 noundef %style) unnamed_addr #0 comdat align 2 {
entry:
  %this.addr = alloca ptr, align 8
  %style.addr = alloca i32, align 4
  store ptr %this, ptr %this.addr, align 8
  store i32 %style, ptr %style.addr, align 4
  %this1 = load ptr, ptr %this.addr, align 8
  %m_blacks = getelementptr inbounds %"struct.OpenColorIO_v2_4dev::GradingTone", ptr %this1, i32 0, i32 0
  %0 = load i32, ptr %style.addr, align 4
  %cmp = icmp eq i32 %0, 1
  br i1 %cmp, label %cond.true, label %cond.false

cond.true:                                        ; preds = %entry
  call void @_ZN19OpenColorIO_v2_4dev13GradingRGBMSWC2Edd(ptr noundef nonnull align 8 dereferenceable(48) %m_blacks, double noundef 0.000000e+00, double noundef 4.000000e+00)
  br label %cond.end5

cond.false:                                       ; preds = %entry
  %1 = load i32, ptr %style.addr, align 4
  %cmp2 = icmp eq i32 %1, 0
  br i1 %cmp2, label %cond.true3, label %cond.false4

cond.true3:                                       ; preds = %cond.false
  call void @_ZN19OpenColorIO_v2_4dev13GradingRGBMSWC2Edd(ptr noundef nonnull align 8 dereferenceable(48) %m_blacks, double noundef 4.000000e-01, double noundef 4.000000e-01)
  br label %cond.end

cond.false4:                                      ; preds = %cond.false
  call void @_ZN19OpenColorIO_v2_4dev13GradingRGBMSWC2Edd(ptr noundef nonnull align 8 dereferenceable(48) %m_blacks, double noundef 4.000000e-01, double noundef 4.000000e-01)
  br label %cond.end

cond.end:                                         ; preds = %cond.false4, %cond.true3
  br label %cond.end5

cond.end5:                                        ; preds = %cond.end, %cond.true
  %m_shadows = getelementptr inbounds %"struct.OpenColorIO_v2_4dev::GradingTone", ptr %this1, i32 0, i32 1
  %2 = load i32, ptr %style.addr, align 4
  %cmp6 = icmp eq i32 %2, 1
  br i1 %cmp6, label %cond.true7, label %cond.false8

cond.true7:                                       ; preds = %cond.end5
  call void @_ZN19OpenColorIO_v2_4dev13GradingRGBMSWC2Edd(ptr noundef nonnull align 8 dereferenceable(48) %m_shadows, double noundef 2.000000e+00, double noundef -7.000000e+00)
  br label %cond.end13

cond.false8:                                      ; preds = %cond.end5
  %3 = load i32, ptr %style.addr, align 4
  %cmp9 = icmp eq i32 %3, 0
  br i1 %cmp9, label %cond.true10, label %cond.false11

cond.true10:                                      ; preds = %cond.false8
  call void @_ZN19OpenColorIO_v2_4dev13GradingRGBMSWC2Edd(ptr noundef nonnull align 8 dereferenceable(48) %m_shadows, double noundef 5.000000e-01, double noundef 0.000000e+00)
  br label %cond.end12

cond.false11:                                     ; preds = %cond.false8
  call void @_ZN19OpenColorIO_v2_4dev13GradingRGBMSWC2Edd(ptr noundef nonnull align 8 dereferenceable(48) %m_shadows, double noundef 6.000000e-01, double noundef 0.000000e+00)
  br label %cond.end12

cond.end12:                                       ; preds = %cond.false11, %cond.true10
  br label %cond.end13

cond.end13:                                       ; preds = %cond.end12, %cond.true7
  %m_midtones = getelementptr inbounds %"struct.OpenColorIO_v2_4dev::GradingTone", ptr %this1, i32 0, i32 2
  %4 = load i32, ptr %style.addr, align 4
  %cmp14 = icmp eq i32 %4, 1
  br i1 %cmp14, label %cond.true15, label %cond.false16

cond.true15:                                      ; preds = %cond.end13
  call void @_ZN19OpenColorIO_v2_4dev13GradingRGBMSWC2Edd(ptr noundef nonnull align 8 dereferenceable(48) %m_midtones, double noundef 0.000000e+00, double noundef 8.000000e+00)
  br label %cond.end21

cond.false16:                                     ; preds = %cond.end13
  %5 = load i32, ptr %style.addr, align 4
  %cmp17 = icmp eq i32 %5, 0
  br i1 %cmp17, label %cond.true18, label %cond.false19

cond.true18:                                      ; preds = %cond.false16
  call void @_ZN19OpenColorIO_v2_4dev13GradingRGBMSWC2Edd(ptr noundef nonnull align 8 dereferenceable(48) %m_midtones, double noundef 4.000000e-01, double noundef 6.000000e-01)
  br label %cond.end20

cond.false19:                                     ; preds = %cond.false16
  call void @_ZN19OpenColorIO_v2_4dev13GradingRGBMSWC2Edd(ptr noundef nonnull align 8 dereferenceable(48) %m_midtones, double noundef 4.000000e-01, double noundef 0x3FE6666666666666)
  br label %cond.end20

cond.end20:                                       ; preds = %cond.false19, %cond.true18
  br label %cond.end21

cond.end21:                                       ; preds = %cond.end20, %cond.true15
  %m_highlights = getelementptr inbounds %"struct.OpenColorIO_v2_4dev::GradingTone", ptr %this1, i32 0, i32 3
  %6 = load i32, ptr %style.addr, align 4
  %cmp22 = icmp eq i32 %6, 1
  br i1 %cmp22, label %cond.true23, label %cond.false24

cond.true23:                                      ; preds = %cond.end21
  call void @_ZN19OpenColorIO_v2_4dev13GradingRGBMSWC2Edd(ptr noundef nonnull align 8 dereferenceable(48) %m_highlights, double noundef -2.000000e+00, double noundef 9.000000e+00)
  br label %cond.end29

cond.false24:                                     ; preds = %cond.end21
  %7 = load i32, ptr %style.addr, align 4
  %cmp25 = icmp eq i32 %7, 0
  br i1 %cmp25, label %cond.true26, label %cond.false27

cond.true26:                                      ; preds = %cond.false24
  call void @_ZN19OpenColorIO_v2_4dev13GradingRGBMSWC2Edd(ptr noundef nonnull align 8 dereferenceable(48) %m_highlights, double noundef 3.000000e-01, double noundef 1.000000e+00)
  br label %cond.end28

cond.false27:                                     ; preds = %cond.false24
  call void @_ZN19OpenColorIO_v2_4dev13GradingRGBMSWC2Edd(ptr noundef nonnull align 8 dereferenceable(48) %m_highlights, double noundef 2.000000e-01, double noundef 1.000000e+00)
  br label %cond.end28

cond.end28:                                       ; preds = %cond.false27, %cond.true26
  br label %cond.end29

cond.end29:                                       ; preds = %cond.end28, %cond.true23
  %m_whites = getelementptr inbounds %"struct.OpenColorIO_v2_4dev::GradingTone", ptr %this1, i32 0, i32 4
  %8 = load i32, ptr %style.addr, align 4
  %cmp30 = icmp eq i32 %8, 1
  br i1 %cmp30, label %cond.true31, label %cond.false32

cond.true31:                                      ; preds = %cond.end29
  call void @_ZN19OpenColorIO_v2_4dev13GradingRGBMSWC2Edd(ptr noundef nonnull align 8 dereferenceable(48) %m_whites, double noundef 0.000000e+00, double noundef 8.000000e+00)
  br label %cond.end37

cond.false32:                                     ; preds = %cond.end29
  %9 = load i32, ptr %style.addr, align 4
  %cmp33 = icmp eq i32 %9, 0
  br i1 %cmp33, label %cond.true34, label %cond.false35

cond.true34:                                      ; preds = %cond.false32
  call void @_ZN19OpenColorIO_v2_4dev13GradingRGBMSWC2Edd(ptr noundef nonnull align 8 dereferenceable(48) %m_whites, double noundef 4.000000e-01, double noundef 5.000000e-01)
  br label %cond.end36

cond.false35:                                     ; preds = %cond.false32
  call void @_ZN19OpenColorIO_v2_4dev13GradingRGBMSWC2Edd(ptr noundef nonnull align 8 dereferenceable(48) %m_whites, double noundef 5.000000e-01, double noundef 5.000000e-01)
  br label %cond.end36

cond.end36:                                       ; preds = %cond.false35, %cond.true34
  br label %cond.end37

cond.end37:                                       ; preds = %cond.end36, %cond.true31
  %m_scontrast = getelementptr inbounds %"struct.OpenColorIO_v2_4dev::GradingTone", ptr %this1, i32 0, i32 5
  store double 1.000000e+00, ptr %m_scontrast, align 8
  ret void
}

; Function Attrs: mustprogress uwtable
define hidden void @_ZN19OpenColorIO_v2_4dev30DynamicPropertyGradingToneImpl8setStyleENS_12GradingStyleE(ptr noundef nonnull align 8 dereferenceable(1208) %this, i32 noundef %style) #0 align 2 {
entry:
  %this.addr = alloca ptr, align 8
  %style.addr = alloca i32, align 4
  %ref.tmp = alloca %"struct.OpenColorIO_v2_4dev::GradingTone", align 8
  store ptr %this, ptr %this.addr, align 8
  store i32 %style, ptr %style.addr, align 4
  %this1 = load ptr, ptr %this.addr, align 8
  %0 = load i32, ptr %style.addr, align 4
  call void @_ZN19OpenColorIO_v2_4dev11GradingToneC2ENS_12GradingStyleE(ptr noundef nonnull align 8 dereferenceable(248) %ref.tmp, i32 noundef %0)
  %m_value = getelementptr inbounds %"class.OpenColorIO_v2_4dev::DynamicPropertyGradingToneImpl", ptr %this1, i32 0, i32 2
  call void @llvm.memcpy.p0.p0.i64(ptr align 8 %m_value, ptr align 8 %ref.tmp, i64 248, i1 false)
  %m_preRenderValues = getelementptr inbounds %"class.OpenColorIO_v2_4dev::DynamicPropertyGradingToneImpl", ptr %this1, i32 0, i32 3
  %1 = load i32, ptr %style.addr, align 4
  call void @_ZN19OpenColorIO_v2_4dev20GradingTonePreRender8setStyleENS_12GradingStyleE(ptr noundef nonnull align 8 dereferenceable(936) %m_preRenderValues, i32 noundef %1)
  %m_preRenderValues2 = getelementptr inbounds %"class.OpenColorIO_v2_4dev::DynamicPropertyGradingToneImpl", ptr %this1, i32 0, i32 3
  %m_value3 = getelementptr inbounds %"class.OpenColorIO_v2_4dev::DynamicPropertyGradingToneImpl", ptr %this1, i32 0, i32 2
  call void @_ZN19OpenColorIO_v2_4dev20GradingTonePreRender6updateERKNS_11GradingToneE(ptr noundef nonnull align 8 dereferenceable(936) %m_preRenderValues2, ptr noundef nonnull align 8 dereferenceable(248) %m_value3)
  ret void
}